target datalayout = "e-m:e-p270:32:32-p271:32:32-p272:64:64-i64:64-i128:128-f80:128-n8:16:32:64-S128"
target triple = "x86_64-pc-linux-gnu"

@mpegaudio_tableinit.exp2_lut = internal constant [4 x double] [double 1.000000e+00, double 0x3FF306FE0A31B715, double 0x3FF6A09E667F3BCD, double 0x3FFAE89F995AD3AD], align 16
@expval_table_fixed = internal global [512 x [16 x i32]] zeroinitializer, align 16
@exp_table_fixed = internal global [512 x i32] zeroinitializer, align 16

; Function Attrs: cold nounwind optsize uwtable
define internal void @mpegaudio_tableinit() #0 {
  %1 = alloca i32, align 4
  %2 = alloca i32, align 4
  %3 = alloca i32, align 4
  %4 = alloca [16 x double], align 16
  %5 = alloca double, align 8
  %6 = alloca double, align 8
  %7 = alloca double, align 8
  call void @llvm.lifetime.start.p0(i64 4, ptr %1) #13
  call void @llvm.lifetime.start.p0(i64 4, ptr %2) #13
  call void @llvm.lifetime.start.p0(i64 4, ptr %3) #13
  call void @llvm.lifetime.start.p0(i64 128, ptr %4) #13
  call void @llvm.lifetime.start.p0(i64 8, ptr %5) #13
  store double 0x3B70000000000000, ptr %5, align 8, !tbaa !97
  call void @llvm.lifetime.start.p0(i64 8, ptr %6) #13
  store i32 0, ptr %1, align 4, !tbaa !50
  br label %8

8:                                                ; preds = %21, %0
  %9 = load i32, ptr %1, align 4, !tbaa !50
  %10 = icmp slt i32 %9, 16
  br i1 %10, label %11, label %24

11:                                               ; preds = %8
  %12 = load i32, ptr %1, align 4, !tbaa !50
  %13 = sitofp i32 %12 to double
  %14 = load i32, ptr %1, align 4, !tbaa !50
  %15 = sitofp i32 %14 to double
  %16 = call nsz double @cbrt(double noundef %15) #14
  %17 = fmul nsz double %13, %16
  %18 = load i32, ptr %1, align 4, !tbaa !50
  %19 = sext i32 %18 to i64
  %20 = getelementptr inbounds [16 x double], ptr %4, i64 0, i64 %19
  store double %17, ptr %20, align 8, !tbaa !97
  br label %21

21:                                               ; preds = %11
  %22 = load i32, ptr %1, align 4, !tbaa !50
  %23 = add nsw i32 %22, 1
  store i32 %23, ptr %1, align 4, !tbaa !50
  br label %8, !llvm.loop !101

24:                                               ; preds = %8
  store i32 0, ptr %3, align 4, !tbaa !50
  br label %25

25:                                               ; preds = %84, %24
  %26 = load i32, ptr %3, align 4, !tbaa !50
  %27 = icmp slt i32 %26, 512
  br i1 %27, label %28, label %87

28:                                               ; preds = %25
  %29 = load i32, ptr %3, align 4, !tbaa !50
  %30 = icmp ne i32 %29, 0
  br i1 %30, label %31, label %38

31:                                               ; preds = %28
  %32 = load i32, ptr %3, align 4, !tbaa !50
  %33 = and i32 %32, 3
  %34 = icmp eq i32 %33, 0
  br i1 %34, label %35, label %38

35:                                               ; preds = %31
  %36 = load double, ptr %5, align 8, !tbaa !97
  %37 = fmul nsz double %36, 2.000000e+00
  store double %37, ptr %5, align 8, !tbaa !97
  br label %38

38:                                               ; preds = %35, %31, %28
  %39 = load double, ptr %5, align 8, !tbaa !97
  %40 = load i32, ptr %3, align 4, !tbaa !50
  %41 = and i32 %40, 3
  %42 = sext i32 %41 to i64
  %43 = getelementptr inbounds [4 x double], ptr @mpegaudio_tableinit.exp2_lut, i64 0, i64 %42
  %44 = load double, ptr %43, align 8, !tbaa !97
  %45 = fmul nsz double %39, %44
  %46 = fdiv nsz double %45, 1.759000e+00
  store double %46, ptr %6, align 8, !tbaa !97
  store i32 0, ptr %2, align 4, !tbaa !50
  br label %47

47:                                               ; preds = %72, %38
  %48 = load i32, ptr %2, align 4, !tbaa !50
  %49 = icmp slt i32 %48, 16
  br i1 %49, label %50, label %75

50:                                               ; preds = %47
  call void @llvm.lifetime.start.p0(i64 8, ptr %7) #13
  %51 = load i32, ptr %2, align 4, !tbaa !50
  %52 = sext i32 %51 to i64
  %53 = getelementptr inbounds [16 x double], ptr %4, i64 0, i64 %52
  %54 = load double, ptr %53, align 8, !tbaa !97
  %55 = load double, ptr %6, align 8, !tbaa !97
  %56 = fmul nsz double %54, %55
  store double %56, ptr %7, align 8, !tbaa !97
  %57 = load double, ptr %7, align 8, !tbaa !97
  %58 = fcmp nsz olt double %57, 0x41EFFFFFFFE00000
  br i1 %58, label %59, label %62

59:                                               ; preds = %50
  %60 = load double, ptr %7, align 8, !tbaa !97
  %61 = call i64 @llvm.llrint.i64.f64(double %60)
  br label %63

62:                                               ; preds = %50
  br label %63

63:                                               ; preds = %62, %59
  %64 = phi i64 [ %61, %59 ], [ 4294967295, %62 ]
  %65 = trunc i64 %64 to i32
  %66 = load i32, ptr %3, align 4, !tbaa !50
  %67 = sext i32 %66 to i64
  %68 = getelementptr inbounds [512 x [16 x i32]], ptr @expval_table_fixed, i64 0, i64 %67
  %69 = load i32, ptr %2, align 4, !tbaa !50
  %70 = sext i32 %69 to i64
  %71 = getelementptr inbounds [16 x i32], ptr %68, i64 0, i64 %70
  store i32 %65, ptr %71, align 4, !tbaa !50
  call void @llvm.lifetime.end.p0(i64 8, ptr %7) #13
  br label %72

72:                                               ; preds = %63
  %73 = load i32, ptr %2, align 4, !tbaa !50
  %74 = add nsw i32 %73, 1
  store i32 %74, ptr %2, align 4, !tbaa !50
  br label %47, !llvm.loop !102

75:                                               ; preds = %47
  %76 = load i32, ptr %3, align 4, !tbaa !50
  %77 = sext i32 %76 to i64
  %78 = getelementptr inbounds [512 x [16 x i32]], ptr @expval_table_fixed, i64 0, i64 %77
  %79 = getelementptr inbounds [16 x i32], ptr %78, i64 0, i64 1
  %80 = load i32, ptr %79, align 4, !tbaa !50
  %81 = load i32, ptr %3, align 4, !tbaa !50
  %82 = sext i32 %81 to i64
  %83 = getelementptr inbounds [512 x i32], ptr @exp_table_fixed, i64 0, i64 %82
  store i32 %80, ptr %83, align 4, !tbaa !50
  br label %84

84:                                               ; preds = %75
  %85 = load i32, ptr %3, align 4, !tbaa !50
  %86 = add nsw i32 %85, 1
  store i32 %86, ptr %3, align 4, !tbaa !50
  br label %25, !llvm.loop !103

87:                                               ; preds = %25
  call void @llvm.lifetime.end.p0(i64 8, ptr %6) #13
  call void @llvm.lifetime.end.p0(i64 8, ptr %5) #13
  call void @llvm.lifetime.end.p0(i64 128, ptr %4) #13
  call void @llvm.lifetime.end.p0(i64 4, ptr %3) #13
  call void @llvm.lifetime.end.p0(i64 4, ptr %2) #13
  call void @llvm.lifetime.end.p0(i64 4, ptr %1) #13
  ret void
}