; Function Attrs: cold nofree norecurse nosync nounwind optsize memory(readwrite, argmem: none, inaccessiblemem: none) uwtable
define internal fastcc void @mpegaudio_tableinit() unnamed_addr #6 {
  %1 = alloca [16 x double], align 16
  call void @llvm.lifetime.start.p0(i64 128, ptr nonnull %1) #14
  br label %2

2:                                                ; preds = %0, %2
  %indvars.iv = phi i64 [ 0, %0 ], [ %indvars.iv.next, %2 ]
  %3 = trunc nuw nsw i64 %indvars.iv to i32
  %4 = uitofp nneg i32 %3 to double
  %5 = tail call nsz double @cbrt(double noundef %4) #16
  %6 = fmul nsz double %5, %4
  %7 = getelementptr inbounds nuw [16 x double], ptr %1, i64 0, i64 %indvars.iv
  store double %6, ptr %7, align 8, !tbaa !87
  %indvars.iv.next = add nuw nsw i64 %indvars.iv, 1
  %exitcond.not = icmp eq i64 %indvars.iv.next, 16
  br i1 %exitcond.not, label %.preheader, label %2, !llvm.loop !89

.preheader:                                       ; preds = %2, %25
  %indvars.iv34 = phi i64 [ %indvars.iv.next35, %25 ], [ 0, %2 ]
  %.02228 = phi double [ %.1, %25 ], [ 0x3B70000000000000, %2 ]
  %.not = icmp ne i64 %indvars.iv34, 0
  %8 = and i64 %indvars.iv34, 3
  %9 = icmp eq i64 %8, 0
  %or.cond = and i1 %.not, %9
  %10 = fmul nsz double %.02228, 2.000000e+00
  %.1 = select nsz i1 %or.cond, double %10, double %.02228
  %11 = and i64 %indvars.iv34, 3
  %12 = getelementptr inbounds nuw [4 x double], ptr @mpegaudio_tableinit.exp2_lut, i64 0, i64 %11
  %13 = load double, ptr %12, align 8, !tbaa !87
  %14 = fmul nsz double %.1, %13
  %15 = fdiv nsz double %14, 1.759000e+00
  br label %16

16:                                               ; preds = %.preheader, %16
  %indvars.iv30 = phi i64 [ 0, %.preheader ], [ %indvars.iv.next31, %16 ]
  %17 = getelementptr inbounds nuw [16 x double], ptr %1, i64 0, i64 %indvars.iv30
  %18 = load double, ptr %17, align 8, !tbaa !87
  %19 = fmul nsz double %15, %18
  %20 = fcmp nsz olt double %19, 0x41EFFFFFFFE00000
  %21 = tail call i64 @llvm.llrint.i64.f64(double %19)
  %22 = trunc i64 %21 to i32
  %23 = select i1 %20, i32 %22, i32 -1
  %24 = getelementptr inbounds nuw [512 x [16 x i32]], ptr @expval_table_fixed, i64 0, i64 %indvars.iv34, i64 %indvars.iv30
  store i32 %23, ptr %24, align 4, !tbaa !47
  %indvars.iv.next31 = add nuw nsw i64 %indvars.iv30, 1
  %exitcond33.not = icmp eq i64 %indvars.iv.next31, 16
  br i1 %exitcond33.not, label %25, label %16, !llvm.loop !90

25:                                               ; preds = %16
  %26 = getelementptr inbounds nuw [512 x [16 x i32]], ptr @expval_table_fixed, i64 0, i64 %indvars.iv34, i64 1
  %27 = load i32, ptr %26, align 4, !tbaa !47
  %28 = getelementptr inbounds nuw [512 x i32], ptr @exp_table_fixed, i64 0, i64 %indvars.iv34
  store i32 %27, ptr %28, align 4, !tbaa !47
  %indvars.iv.next35 = add nuw nsw i64 %indvars.iv34, 1
  %exitcond37.not = icmp eq i64 %indvars.iv.next35, 512
  br i1 %exitcond37.not, label %29, label %.preheader, !llvm.loop !91

29:                                               ; preds = %25
  call void @llvm.lifetime.end.p0(i64 128, ptr nonnull %1) #14
  ret void
}